(dp0
S''
p1
(dp2
S'bank'
p3
I100
sS'settings'
p4
(dp5
S'hard'
p6
S'off'
p7
sssS'andrew'
p8
(dp9
S'bank'
p10
I75
sS'settings'
p11
(dp12
S'hard'
p13
S'off'
p14
sssS'jack'
p15
(dp16
S'bank'
p17
I145
sS'settings'
p18
(dp19
S'hard'
p20
S'off'
p21
sss.